target datalayout = "e-m:e-p270:32:32-p271:32:32-p272:64:64-i64:64-i128:128-f80:128-n8:16:32:64-S128"
target triple = "x86_64-pc-linux-gnu"

@opt_verbosity = internal global i32 6, align 4
@bio_err = external global ptr, align 8
@.str.350 = private unnamed_addr constant [38 x i8] c"%s:%s:%d:CMP %s: out of memory%s%s%s\0A\00", align 1
@.str.351 = private unnamed_addr constant [22 x i8] c"../openssl/apps/cmp.c\00", align 1
@.str.352 = private unnamed_addr constant [6 x i8] c"error\00", align 1
@.str.353 = private unnamed_addr constant [1 x i8] zeroinitializer, align 1
@.str.589 = private unnamed_addr constant [9 x i8] c"critical\00", align 1
@.str.590 = private unnamed_addr constant [42 x i8] c"%s:%s:%d:CMP %s: bad syntax of %s '%s'%s\0A\00", align 1
@__func__.set_gennames = private unnamed_addr constant [13 x i8] c"set_gennames\00", align 1

; Function Attrs: nounwind uwtable
define internal i32 @set_gennames(ptr noundef %0, ptr noundef %1, ptr noundef %2) #0 {
  %4 = alloca i32, align 4
  %5 = alloca ptr, align 8
  %6 = alloca ptr, align 8
  %7 = alloca ptr, align 8
  %8 = alloca ptr, align 8
  %9 = alloca ptr, align 8
  %10 = alloca i32, align 4
  store ptr %0, ptr %5, align 8, !tbaa !17
  store ptr %1, ptr %6, align 8, !tbaa !11
  store ptr %2, ptr %7, align 8, !tbaa !11
  call void @llvm.lifetime.start.p0(i64 8, ptr %8) #11
  br label %11

11:                                               ; preds = %76, %3
  %12 = load ptr, ptr %6, align 8, !tbaa !11
  %13 = icmp ne ptr %12, null
  br i1 %13, label %14, label %78

14:                                               ; preds = %11
  call void @llvm.lifetime.start.p0(i64 8, ptr %9) #11
  %15 = load ptr, ptr %6, align 8, !tbaa !11
  %16 = call ptr @next_item(ptr noundef %15)
  store ptr %16, ptr %8, align 8, !tbaa !11
  %17 = load ptr, ptr %6, align 8, !tbaa !11
  %18 = call i32 @strcmp(ptr noundef %17, ptr noundef @.str.589) #12
  %19 = icmp eq i32 %18, 0
  br i1 %19, label %20, label %23

20:                                               ; preds = %14
  %21 = load ptr, ptr %5, align 8, !tbaa !17
  %22 = call i32 @OSSL_CMP_CTX_set_option(ptr noundef %21, i32 noundef 22, i32 noundef 1)
  store i32 4, ptr %10, align 4
  br label %73

23:                                               ; preds = %14
  %24 = call i32 @ERR_set_mark()
  %25 = load ptr, ptr %6, align 8, !tbaa !11
  %26 = call ptr @a2i_GENERAL_NAME(ptr noundef null, ptr noundef null, ptr noundef null, i32 noundef 7, ptr noundef %25, i32 noundef 0)
  store ptr %26, ptr %9, align 8, !tbaa !114
  %27 = load ptr, ptr %9, align 8, !tbaa !114
  %28 = icmp eq ptr %27, null
  br i1 %28, label %29, label %43

29:                                               ; preds = %23
  %30 = load ptr, ptr %6, align 8, !tbaa !11
  %31 = call ptr @strchr(ptr noundef %30, i32 noundef 64) #12
  %32 = icmp ne ptr %31, null
  br i1 %32, label %33, label %34

33:                                               ; preds = %29
  br label %39

34:                                               ; preds = %29
  %35 = load ptr, ptr %6, align 8, !tbaa !11
  %36 = call ptr @strchr(ptr noundef %35, i32 noundef 58) #12
  %37 = icmp ne ptr %36, null
  %38 = select i1 %37, i32 6, i32 2
  br label %39

39:                                               ; preds = %34, %33
  %40 = phi i32 [ 1, %33 ], [ %38, %34 ]
  %41 = load ptr, ptr %6, align 8, !tbaa !11
  %42 = call ptr @a2i_GENERAL_NAME(ptr noundef null, ptr noundef null, ptr noundef null, i32 noundef %40, ptr noundef %41, i32 noundef 0)
  store ptr %42, ptr %9, align 8, !tbaa !114
  br label %43

43:                                               ; preds = %39, %23
  %44 = call i32 @ERR_pop_to_mark()
  %45 = load ptr, ptr %9, align 8, !tbaa !114
  %46 = icmp eq ptr %45, null
  br i1 %46, label %47, label %57

47:                                               ; preds = %43
  %48 = load i32, ptr @opt_verbosity, align 4, !tbaa !4
  %49 = icmp sgt i32 3, %48
  br i1 %49, label %50, label %51

50:                                               ; preds = %47
  br label %56

51:                                               ; preds = %47
  %52 = load ptr, ptr @bio_err, align 8, !tbaa !21
  %53 = load ptr, ptr %7, align 8, !tbaa !11
  %54 = load ptr, ptr %6, align 8, !tbaa !11
  %55 = call i32 (ptr, ptr, ...) @BIO_printf(ptr noundef %52, ptr noundef @.str.590, ptr noundef @__func__.set_gennames, ptr noundef @.str.351, i32 noundef 998, ptr noundef @.str.352, ptr noundef %53, ptr noundef %54, ptr noundef @.str.353)
  br label %56

56:                                               ; preds = %51, %50
  store i32 0, ptr %4, align 4
  store i32 1, ptr %10, align 4
  br label %73

57:                                               ; preds = %43
  %58 = load ptr, ptr %5, align 8, !tbaa !17
  %59 = load ptr, ptr %9, align 8, !tbaa !114
  %60 = call i32 @OSSL_CMP_CTX_push1_subjectAltName(ptr noundef %58, ptr noundef %59)
  %61 = icmp ne i32 %60, 0
  br i1 %61, label %71, label %62

62:                                               ; preds = %57
  %63 = load ptr, ptr %9, align 8, !tbaa !114
  call void @GENERAL_NAME_free(ptr noundef %63)
  %64 = load i32, ptr @opt_verbosity, align 4, !tbaa !4
  %65 = icmp sgt i32 3, %64
  br i1 %65, label %66, label %67

66:                                               ; preds = %62
  br label %70

67:                                               ; preds = %62
  %68 = load ptr, ptr @bio_err, align 8, !tbaa !21
  %69 = call i32 (ptr, ptr, ...) @BIO_printf(ptr noundef %68, ptr noundef @.str.350, ptr noundef @__func__.set_gennames, ptr noundef @.str.351, i32 noundef 1003, ptr noundef @.str.352, ptr noundef @.str.353, ptr noundef @.str.353, ptr noundef @.str.353)
  br label %70

70:                                               ; preds = %67, %66
  store i32 0, ptr %4, align 4
  store i32 1, ptr %10, align 4
  br label %73

71:                                               ; preds = %57
  %72 = load ptr, ptr %9, align 8, !tbaa !114
  call void @GENERAL_NAME_free(ptr noundef %72)
  store i32 0, ptr %10, align 4
  br label %73

73:                                               ; preds = %71, %70, %56, %20
  call void @llvm.lifetime.end.p0(i64 8, ptr %9) #11
  %74 = load i32, ptr %10, align 4
  switch i32 %74, label %79 [
    i32 0, label %75
    i32 4, label %76
  ]

75:                                               ; preds = %73
  br label %76

76:                                               ; preds = %75, %73
  %77 = load ptr, ptr %8, align 8, !tbaa !11
  store ptr %77, ptr %6, align 8, !tbaa !11
  br label %11, !llvm.loop !116

78:                                               ; preds = %11
  store i32 1, ptr %4, align 4
  store i32 1, ptr %10, align 4
  br label %79

79:                                               ; preds = %78, %73
  call void @llvm.lifetime.end.p0(i64 8, ptr %8) #11
  %80 = load i32, ptr %4, align 4
  ret i32 %80
}