; Function Attrs: nounwind uwtable
define internal fastcc range(i32 0, 2) i32 @set_gennames(ptr noundef %0, ptr noundef %1) unnamed_addr #0 {
  %.not7 = icmp eq ptr %1, null
  br i1 %.not7, label %.thread3, label %.lr.ph

.lr.ph:                                           ; preds = %2, %37
  %.0208 = phi ptr [ %3, %37 ], [ %1, %2 ]
  %3 = tail call ptr @next_item(ptr noundef nonnull %.0208) #12
  %4 = tail call i32 @strcmp(ptr noundef nonnull dereferenceable(1) %.0208, ptr noundef nonnull dereferenceable(9) @.str.589) #13
  %5 = icmp eq i32 %4, 0
  br i1 %5, label %6, label %8

6:                                                ; preds = %.lr.ph
  %7 = tail call i32 @OSSL_CMP_CTX_set_option(ptr noundef %0, i32 noundef 22, i32 noundef 1) #12
  br label %37

8:                                                ; preds = %.lr.ph
  %9 = tail call i32 @ERR_set_mark() #12
  %10 = tail call ptr @a2i_GENERAL_NAME(ptr noundef null, ptr noundef null, ptr noundef null, i32 noundef 7, ptr noundef nonnull %.0208, i32 noundef 0) #12
  %11 = icmp eq ptr %10, null
  br i1 %11, label %13, label %.thread

.thread:                                          ; preds = %8
  %12 = tail call i32 @ERR_pop_to_mark() #12
  br label %29

13:                                               ; preds = %8
  %14 = tail call ptr @strchr(ptr noundef nonnull dereferenceable(1) %.0208, i32 noundef 64) #13
  %.not22 = icmp eq ptr %14, null
  br i1 %.not22, label %15, label %18

15:                                               ; preds = %13
  %16 = tail call ptr @strchr(ptr noundef nonnull dereferenceable(1) %.0208, i32 noundef 58) #13
  %.not23 = icmp eq ptr %16, null
  %17 = select i1 %.not23, i32 2, i32 6
  br label %18

18:                                               ; preds = %15, %13
  %19 = phi i32 [ %17, %15 ], [ 1, %13 ]
  %20 = tail call ptr @a2i_GENERAL_NAME(ptr noundef null, ptr noundef null, ptr noundef null, i32 noundef %19, ptr noundef nonnull %.0208, i32 noundef 0) #12
  %21 = tail call i32 @ERR_pop_to_mark() #12
  %22 = icmp eq ptr %20, null
  br i1 %22, label %23, label %29

23:                                               ; preds = %18
  %24 = load i32, ptr @opt_verbosity, align 4, !tbaa !10
  %25 = icmp slt i32 %24, 3
  br i1 %25, label %.thread3, label %26

26:                                               ; preds = %23
  %27 = load ptr, ptr @bio_err, align 8, !tbaa !12
  %28 = tail call i32 (ptr, ptr, ...) @BIO_printf(ptr noundef %27, ptr noundef nonnull @.str.590, ptr noundef nonnull @__func__.set_gennames, ptr noundef nonnull @.str.351, i32 noundef 998, ptr noundef nonnull @.str.352, ptr noundef nonnull @.str.576, ptr noundef nonnull %.0208, ptr noundef nonnull @.str.353) #12
  br label %.thread3

29:                                               ; preds = %.thread, %18
  %.0182 = phi ptr [ %10, %.thread ], [ %20, %18 ]
  %30 = tail call i32 @OSSL_CMP_CTX_push1_subjectAltName(ptr noundef %0, ptr noundef nonnull %.0182) #12
  %.not24 = icmp eq i32 %30, 0
  tail call void @GENERAL_NAME_free(ptr noundef nonnull %.0182) #12
  br i1 %.not24, label %31, label %37

31:                                               ; preds = %29
  %32 = load i32, ptr @opt_verbosity, align 4, !tbaa !10
  %33 = icmp slt i32 %32, 3
  br i1 %33, label %.thread3, label %34

34:                                               ; preds = %31
  %35 = load ptr, ptr @bio_err, align 8, !tbaa !12
  %36 = tail call i32 (ptr, ptr, ...) @BIO_printf(ptr noundef %35, ptr noundef nonnull @.str.350, ptr noundef nonnull @__func__.set_gennames, ptr noundef nonnull @.str.351, i32 noundef 1003, ptr noundef nonnull @.str.352, ptr noundef nonnull @.str.353, ptr noundef nonnull @.str.353, ptr noundef nonnull @.str.353) #12
  br label %.thread3

37:                                               ; preds = %29, %6
  %.not = icmp eq ptr %3, null
  br i1 %.not, label %.thread3, label %.lr.ph, !llvm.loop !81

.thread3:                                         ; preds = %37, %2, %34, %31, %26, %23
  %.2 = phi i32 [ 0, %23 ], [ 0, %26 ], [ 0, %31 ], [ 0, %34 ], [ 1, %2 ], [ 1, %37 ]
  ret i32 %.2
}